; Function Attrs: mustprogress nofree norecurse nosync nounwind willreturn memory(read, inaccessiblemem: none) uwtable
define i32 @llama_get_kv_cache_token_count(ptr nocapture noundef readonly %ctx) local_unnamed_addr #23 {
entry:
  %size = getelementptr inbounds i8, ptr %ctx, i64 64
  %0 = load i32, ptr %size, align 8
  %cmp5.not = icmp eq i32 %0, 0
  br i1 %cmp5.not, label %for.end, label %for.body.lr.ph

for.body.lr.ph:                                   ; preds = %entry
  %cells = getelementptr inbounds i8, ptr %ctx, i64 80
  %1 = load ptr, ptr %cells, align 8
  %wide.trip.count = zext i32 %0 to i64
  br label %for.body

for.body:                                         ; preds = %for.body.lr.ph, %for.body
  %indvars.iv = phi i64 [ 0, %for.body.lr.ph ], [ %indvars.iv.next, %for.body ]
  %result.06 = phi i32 [ 0, %for.body.lr.ph ], [ %conv4, %for.body ]
  %_M_node_count.i.i = getelementptr inbounds %struct.llama_kv_cell, ptr %1, i64 %indvars.iv, i32 2, i32 0, i32 0, i32 1, i32 1
  %2 = load i64, ptr %_M_node_count.i.i, align 8
  %3 = trunc i64 %2 to i32
  %conv4 = add i32 %result.06, %3
  %indvars.iv.next = add nuw nsw i64 %indvars.iv, 1
  %exitcond.not = icmp eq i64 %indvars.iv.next, %wide.trip.count
  br i1 %exitcond.not, label %for.end, label %for.body, !llvm.loop !178

for.end:                                          ; preds = %for.body, %entry
  %result.0.lcssa = phi i32 [ 0, %entry ], [ %conv4, %for.body ]
  ret i32 %result.0.lcssa
}